target datalayout = "e-m:e-p270:32:32-p271:32:32-p272:64:64-i64:64-f80:128-n8:16:32:64-S128"
target triple = "x86_64-pc-linux-gnu"

@.str = private unnamed_addr constant [6 x i8] c"%d,%d\00", align 1
@.str.1 = private unnamed_addr constant [3 x i8] c"%d\00", align 1
@.str.2 = private unnamed_addr constant [7 x i8] c"%d+%d\0A\00", align 1
@.str.3 = private unnamed_addr constant [4 x i8] c"No\0A\00", align 1

; Function Attrs: noinline nounwind uwtable
define dso_local void @main() #0 {
  %1 = alloca i32, align 4
  %2 = alloca i32, align 4
  %3 = alloca i32, align 4
  %4 = alloca i32, align 4
  %5 = alloca [10 x [10 x i32]], align 16
  %6 = alloca [10 x i32], align 16
  %7 = alloca [10 x i32], align 16
  %8 = alloca [10 x i32], align 16
  %9 = alloca i32, align 4
  %10 = alloca i32, align 4
  store i32 -1, i32* %9, align 4
  store i32 -1, i32* %10, align 4
  %11 = call i32 (i8*, ...) @__isoc99_scanf(i8* getelementptr inbounds ([6 x i8], [6 x i8]* @.str, i64 0, i64 0), i32* %3, i32* %4)
  store i32 0, i32* %1, align 4
  br label %12

12:                                               ; preds = %33, %0
  %13 = load i32, i32* %1, align 4
  %14 = load i32, i32* %3, align 4
  %15 = icmp slt i32 %13, %14
  br i1 %15, label %16, label %36

16:                                               ; preds = %12
  store i32 0, i32* %2, align 4
  br label %17

17:                                               ; preds = %29, %16
  %18 = load i32, i32* %2, align 4
  %19 = load i32, i32* %4, align 4
  %20 = icmp slt i32 %18, %19
  br i1 %20, label %21, label %32

21:                                               ; preds = %17
  %22 = load i32, i32* %1, align 4
  %23 = sext i32 %22 to i64
  %24 = getelementptr inbounds [10 x [10 x i32]], [10 x [10 x i32]]* %5, i64 0, i64 %23
  %25 = load i32, i32* %2, align 4
  %26 = sext i32 %25 to i64
  %27 = getelementptr inbounds [10 x i32], [10 x i32]* %24, i64 0, i64 %26
  %28 = call i32 (i8*, ...) @__isoc99_scanf(i8* getelementptr inbounds ([3 x i8], [3 x i8]* @.str.1, i64 0, i64 0), i32* %27)
  br label %29

29:                                               ; preds = %21
  %30 = load i32, i32* %2, align 4
  %31 = add nsw i32 %30, 1
  store i32 %31, i32* %2, align 4
  br label %17

32:                                               ; preds = %17
  br label %33

33:                                               ; preds = %32
  %34 = load i32, i32* %1, align 4
  %35 = add nsw i32 %34, 1
  store i32 %35, i32* %1, align 4
  br label %12

36:                                               ; preds = %12
  store i32 0, i32* %1, align 4
  br label %37

37:                                               ; preds = %90, %36
  %38 = load i32, i32* %1, align 4
  %39 = load i32, i32* %3, align 4
  %40 = icmp slt i32 %38, %39
  br i1 %40, label %41, label %93

41:                                               ; preds = %37
  %42 = load i32, i32* %1, align 4
  %43 = sext i32 %42 to i64
  %44 = getelementptr inbounds [10 x [10 x i32]], [10 x [10 x i32]]* %5, i64 0, i64 %43
  %45 = getelementptr inbounds [10 x i32], [10 x i32]* %44, i64 0, i64 0
  %46 = load i32, i32* %45, align 8
  %47 = load i32, i32* %1, align 4
  %48 = sext i32 %47 to i64
  %49 = getelementptr inbounds [10 x i32], [10 x i32]* %6, i64 0, i64 %48
  store i32 %46, i32* %49, align 4
  %50 = load i32, i32* %1, align 4
  %51 = sext i32 %50 to i64
  %52 = getelementptr inbounds [10 x i32], [10 x i32]* %7, i64 0, i64 %51
  store i32 0, i32* %52, align 4
  store i32 0, i32* %2, align 4
  br label %53

53:                                               ; preds = %86, %41
  %54 = load i32, i32* %2, align 4
  %55 = load i32, i32* %4, align 4
  %56 = icmp slt i32 %54, %55
  br i1 %56, label %57, label %89

57:                                               ; preds = %53
  %58 = load i32, i32* %1, align 4
  %59 = sext i32 %58 to i64
  %60 = getelementptr inbounds [10 x [10 x i32]], [10 x [10 x i32]]* %5, i64 0, i64 %59
  %61 = load i32, i32* %2, align 4
  %62 = sext i32 %61 to i64
  %63 = getelementptr inbounds [10 x i32], [10 x i32]* %60, i64 0, i64 %62
  %64 = load i32, i32* %63, align 4
  %65 = load i32, i32* %1, align 4
  %66 = sext i32 %65 to i64
  %67 = getelementptr inbounds [10 x i32], [10 x i32]* %6, i64 0, i64 %66
  %68 = load i32, i32* %67, align 4
  %69 = icmp sgt i32 %64, %68
  br i1 %69, label %70, label %85

70:                                               ; preds = %57
  %71 = load i32, i32* %1, align 4
  %72 = sext i32 %71 to i64
  %73 = getelementptr inbounds [10 x [10 x i32]], [10 x [10 x i32]]* %5, i64 0, i64 %72
  %74 = load i32, i32* %2, align 4
  %75 = sext i32 %74 to i64
  %76 = getelementptr inbounds [10 x i32], [10 x i32]* %73, i64 0, i64 %75
  %77 = load i32, i32* %76, align 4
  %78 = load i32, i32* %1, align 4
  %79 = sext i32 %78 to i64
  %80 = getelementptr inbounds [10 x i32], [10 x i32]* %6, i64 0, i64 %79
  store i32 %77, i32* %80, align 4
  %81 = load i32, i32* %2, align 4
  %82 = load i32, i32* %1, align 4
  %83 = sext i32 %82 to i64
  %84 = getelementptr inbounds [10 x i32], [10 x i32]* %7, i64 0, i64 %83
  store i32 %81, i32* %84, align 4
  br label %85

85:                                               ; preds = %70, %57
  br label %86

86:                                               ; preds = %85
  %87 = load i32, i32* %2, align 4
  %88 = add nsw i32 %87, 1
  store i32 %88, i32* %2, align 4
  br label %53

89:                                               ; preds = %53
  br label %90

90:                                               ; preds = %89
  %91 = load i32, i32* %1, align 4
  %92 = add nsw i32 %91, 1
  store i32 %92, i32* %1, align 4
  br label %37

93:                                               ; preds = %37
  store i32 0, i32* %2, align 4
  br label %94

94:                                               ; preds = %140, %93
  %95 = load i32, i32* %2, align 4
  %96 = load i32, i32* %4, align 4
  %97 = icmp slt i32 %95, %96
  br i1 %97, label %98, label %143

98:                                               ; preds = %94
  %99 = getelementptr inbounds [10 x [10 x i32]], [10 x [10 x i32]]* %5, i64 0, i64 0
  %100 = load i32, i32* %2, align 4
  %101 = sext i32 %100 to i64
  %102 = getelementptr inbounds [10 x i32], [10 x i32]* %99, i64 0, i64 %101
  %103 = load i32, i32* %102, align 4
  %104 = load i32, i32* %2, align 4
  %105 = sext i32 %104 to i64
  %106 = getelementptr inbounds [10 x i32], [10 x i32]* %8, i64 0, i64 %105
  store i32 %103, i32* %106, align 4
  store i32 0, i32* %1, align 4
  br label %107

107:                                              ; preds = %136, %98
  %108 = load i32, i32* %1, align 4
  %109 = load i32, i32* %3, align 4
  %110 = icmp slt i32 %108, %109
  br i1 %110, label %111, label %139

111:                                              ; preds = %107
  %112 = load i32, i32* %1, align 4
  %113 = sext i32 %112 to i64
  %114 = getelementptr inbounds [10 x [10 x i32]], [10 x [10 x i32]]* %5, i64 0, i64 %113
  %115 = load i32, i32* %2, align 4
  %116 = sext i32 %115 to i64
  %117 = getelementptr inbounds [10 x i32], [10 x i32]* %114, i64 0, i64 %116
  %118 = load i32, i32* %117, align 4
  %119 = load i32, i32* %2, align 4
  %120 = sext i32 %119 to i64
  %121 = getelementptr inbounds [10 x i32], [10 x i32]* %8, i64 0, i64 %120
  %122 = load i32, i32* %121, align 4
  %123 = icmp slt i32 %118, %122
  br i1 %123, label %124, label %135

124:                                              ; preds = %111
  %125 = load i32, i32* %1, align 4
  %126 = sext i32 %125 to i64
  %127 = getelementptr inbounds [10 x [10 x i32]], [10 x [10 x i32]]* %5, i64 0, i64 %126
  %128 = load i32, i32* %2, align 4
  %129 = sext i32 %128 to i64
  %130 = getelementptr inbounds [10 x i32], [10 x i32]* %127, i64 0, i64 %129
  %131 = load i32, i32* %130, align 4
  %132 = load i32, i32* %2, align 4
  %133 = sext i32 %132 to i64
  %134 = getelementptr inbounds [10 x i32], [10 x i32]* %8, i64 0, i64 %133
  store i32 %131, i32* %134, align 4
  br label %135

135:                                              ; preds = %124, %111
  br label %136

136:                                              ; preds = %135
  %137 = load i32, i32* %1, align 4
  %138 = add nsw i32 %137, 1
  store i32 %138, i32* %1, align 4
  br label %107

139:                                              ; preds = %107
  br label %140

140:                                              ; preds = %139
  %141 = load i32, i32* %2, align 4
  %142 = add nsw i32 %141, 1
  store i32 %142, i32* %2, align 4
  br label %94

143:                                              ; preds = %94
  store i32 0, i32* %1, align 4
  br label %144

144:                                              ; preds = %168, %143
  %145 = load i32, i32* %1, align 4
  %146 = load i32, i32* %3, align 4
  %147 = icmp slt i32 %145, %146
  br i1 %147, label %148, label %171

148:                                              ; preds = %144
  %149 = load i32, i32* %1, align 4
  %150 = sext i32 %149 to i64
  %151 = getelementptr inbounds [10 x i32], [10 x i32]* %6, i64 0, i64 %150
  %152 = load i32, i32* %151, align 4
  %153 = load i32, i32* %1, align 4
  %154 = sext i32 %153 to i64
  %155 = getelementptr inbounds [10 x i32], [10 x i32]* %7, i64 0, i64 %154
  %156 = load i32, i32* %155, align 4
  %157 = sext i32 %156 to i64
  %158 = getelementptr inbounds [10 x i32], [10 x i32]* %8, i64 0, i64 %157
  %159 = load i32, i32* %158, align 4
  %160 = icmp eq i32 %152, %159
  br i1 %160, label %161, label %167

161:                                              ; preds = %148
  %162 = load i32, i32* %1, align 4
  store i32 %162, i32* %9, align 4
  %163 = load i32, i32* %1, align 4
  %164 = sext i32 %163 to i64
  %165 = getelementptr inbounds [10 x i32], [10 x i32]* %7, i64 0, i64 %164
  %166 = load i32, i32* %165, align 4
  store i32 %166, i32* %10, align 4
  br label %167

167:                                              ; preds = %161, %148
  br label %168

168:                                              ; preds = %167
  %169 = load i32, i32* %1, align 4
  %170 = add nsw i32 %169, 1
  store i32 %170, i32* %1, align 4
  br label %144

171:                                              ; preds = %144
  %172 = load i32, i32* %9, align 4
  %173 = icmp ne i32 %172, -1
  br i1 %173, label %174, label %178

174:                                              ; preds = %171
  %175 = load i32, i32* %9, align 4
  %176 = load i32, i32* %10, align 4
  %177 = call i32 (i8*, ...) @printf(i8* getelementptr inbounds ([7 x i8], [7 x i8]* @.str.2, i64 0, i64 0), i32 %175, i32 %176)
  br label %180

178:                                              ; preds = %171
  %179 = call i32 (i8*, ...) @printf(i8* getelementptr inbounds ([4 x i8], [4 x i8]* @.str.3, i64 0, i64 0))
  br label %180

180:                                              ; preds = %178, %174
  ret void
}